; Function Attrs: nofree nosync nounwind memory(argmem: readwrite) uwtable
define noundef i32 @stbtt__tesselate_curve(ptr noundef captures(address_is_null) %0, ptr noundef captures(none) %1, float noundef %2, float noundef %3, float noundef %4, float noundef %5, float noundef %6, float noundef %7, float noundef %8, i32 noundef %9) local_unnamed_addr #23 {
  %11 = icmp sgt i32 %9, 16
  br i1 %11, label %.loopexit, label %.lr.ph.preheader

.lr.ph.preheader:                                 ; preds = %10
  %12 = tail call float @llvm.fmuladd.f32(float %5, float 2.000000e+00, float %3)
  %13 = tail call float @llvm.fmuladd.f32(float %4, float 2.000000e+00, float %2)
  br label %.lr.ph

.lr.ph:                                           ; preds = %.lr.ph.preheader, %tailrecurse
  %.pn = phi float [ %36, %tailrecurse ], [ %12, %.lr.ph.preheader ]
  %.pn72 = phi float [ %35, %tailrecurse ], [ %13, %.lr.ph.preheader ]
  %.tr5767 = phi i32 [ %29, %tailrecurse ], [ %9, %.lr.ph.preheader ]
  %.tr5366 = phi float [ %34, %tailrecurse ], [ %5, %.lr.ph.preheader ]
  %.tr5265 = phi float [ %32, %tailrecurse ], [ %4, %.lr.ph.preheader ]
  %.tr5164 = phi float [ %15, %tailrecurse ], [ %3, %.lr.ph.preheader ]
  %.tr5063 = phi float [ %14, %tailrecurse ], [ %2, %.lr.ph.preheader ]
  %.in71 = fadd float %6, %.pn72
  %14 = fmul float %.in71, 2.500000e-01
  %.in = fadd float %7, %.pn
  %15 = fmul float %.in, 2.500000e-01
  %16 = fadd float %7, %.tr5164
  %17 = fmul float %16, 5.000000e-01
  %18 = fsub float %17, %15
  %19 = fadd float %6, %.tr5063
  %20 = fmul float %19, 5.000000e-01
  %21 = fsub float %20, %14
  %22 = fmul float %18, %18
  %23 = tail call float @llvm.fmuladd.f32(float %21, float %21, float %22)
  %24 = fcmp ogt float %23, %8
  br i1 %24, label %tailrecurse, label %37

tailrecurse:                                      ; preds = %.lr.ph
  %25 = fadd float %.tr5063, %.tr5265
  %26 = fmul float %25, 5.000000e-01
  %27 = fadd float %.tr5164, %.tr5366
  %28 = fmul float %27, 5.000000e-01
  %29 = add i32 %.tr5767, 1
  %30 = tail call i32 @stbtt__tesselate_curve(ptr noundef %0, ptr noundef %1, float noundef %.tr5063, float noundef %.tr5164, float noundef %26, float noundef %28, float noundef %14, float noundef %15, float noundef %8, i32 noundef %29)
  %31 = fadd float %6, %.tr5265
  %32 = fmul float %31, 5.000000e-01
  %33 = fadd float %7, %.tr5366
  %34 = fmul float %33, 5.000000e-01
  %35 = tail call float @llvm.fmuladd.f32(float %32, float 2.000000e+00, float %14)
  %36 = tail call float @llvm.fmuladd.f32(float %34, float 2.000000e+00, float %15)
  %exitcond = icmp eq i32 %29, 17
  br i1 %exitcond, label %.loopexit, label %.lr.ph

37:                                               ; preds = %.lr.ph
  %38 = load i32, ptr %1, align 4, !tbaa !17
  %.not.i = icmp eq ptr %0, null
  br i1 %.not.i, label %stbtt__add_point.exit, label %39

39:                                               ; preds = %37
  %40 = sext i32 %38 to i64
  %41 = getelementptr inbounds %struct.stbtt__point, ptr %0, i64 %40
  store float %6, ptr %41, align 4, !tbaa !137
  %42 = getelementptr inbounds nuw i8, ptr %41, i64 4
  store float %7, ptr %42, align 4, !tbaa !135
  br label %stbtt__add_point.exit

stbtt__add_point.exit:                            ; preds = %37, %39
  %43 = add nsw i32 %38, 1
  store i32 %43, ptr %1, align 4, !tbaa !17
  br label %.loopexit

.loopexit:                                        ; preds = %tailrecurse, %10, %stbtt__add_point.exit
  ret i32 1
}